; Function Attrs: mustprogress uwtable
define noundef range(i32 0, 2) i32 @_ZNK6casadi11FmuInternal8eval_fwdEPNS_9FmuMemoryEb(ptr noundef nonnull align 8 dereferenceable(744) %0, ptr noundef %1, i1 noundef zeroext %2) local_unnamed_addr #4 align 2 {
  tail call void @_ZNK6casadi11FmuInternal10gather_fwdEPNS_9FmuMemoryE(ptr noundef nonnull align 8 dereferenceable(744) %0, ptr noundef %1)
  %4 = getelementptr inbounds nuw i8, ptr %1, i64 56
  %5 = load ptr, ptr %4, align 8, !tbaa !165
  %6 = getelementptr inbounds nuw i8, ptr %5, i64 1492
  %7 = load i8, ptr %6, align 4, !tbaa !166, !range !122, !noundef !123
  %8 = trunc nuw i8 %7 to i1
  br i1 %8, label %9, label %.thread

9:                                                ; preds = %3
  %10 = tail call noundef i32 @_ZNK6casadi11FmuInternal7eval_adEPNS_9FmuMemoryE(ptr noundef nonnull align 8 dereferenceable(744) %0, ptr noundef nonnull %1)
  %.not = icmp eq i32 %10, 0
  br i1 %.not, label %11, label %19

11:                                               ; preds = %9
  %.pre = load ptr, ptr %4, align 8, !tbaa !165
  %.phi.trans.insert = getelementptr inbounds nuw i8, ptr %.pre, i64 1492
  %.pre9 = load i8, ptr %.phi.trans.insert, align 4, !tbaa !166, !range !122
  %12 = trunc nuw i8 %.pre9 to i1
  br i1 %12, label %13, label %.thread

13:                                               ; preds = %11
  %14 = getelementptr inbounds nuw i8, ptr %.pre, i64 1512
  %15 = load i8, ptr %14, align 8, !tbaa !215, !range !122, !noundef !123
  %16 = trunc nuw i8 %15 to i1
  br i1 %16, label %.thread, label %18

.thread:                                          ; preds = %3, %13, %11
  %17 = tail call noundef i32 @_ZNK6casadi11FmuInternal7eval_fdEPNS_9FmuMemoryEb(ptr noundef nonnull align 8 dereferenceable(744) %0, ptr noundef nonnull %1, i1 noundef zeroext %2)
  %.not8 = icmp eq i32 %17, 0
  br i1 %.not8, label %18, label %19

18:                                               ; preds = %.thread, %13
  br label %19

19:                                               ; preds = %.thread, %9, %18
  %.0 = phi i32 [ 0, %18 ], [ 1, %9 ], [ 1, %.thread ]
  ret i32 %.0
}